target datalayout = "e-m:e-p270:32:32-p271:32:32-p272:64:64-i64:64-i128:128-f80:128-n8:16:32:64-S128"
target triple = "x86_64-pc-linux-gnu"

@H5P_CLS_DATASET_XFER_ID_g = external global i64, align 8
@H5_libinit_g = external global i8, align 1
@H5_libterm_g = external global i8, align 1
@.str.1 = private unnamed_addr constant [101 x i8] c"generated/home/dtcxzyw/WorkSpace/Projects/compilers/llvm-opt-benchmark/bench/hdf5/hdf5/src/H5Pdxpl.c\00", align 1
@H5E_FUNC_g = external global i64, align 8
@H5E_CANTINIT_g = external global i64, align 8
@.str.2 = private unnamed_addr constant [30 x i8] c"library initialization failed\00", align 1
@H5E_CANTSET_g = external global i64, align 8
@.str.3 = private unnamed_addr constant [22 x i8] c"can't set API context\00", align 1
@H5E_ARGS_g = external global i64, align 8
@H5E_BADVALUE_g = external global i64, align 8
@H5E_ID_g = external global i64, align 8
@H5E_BADID_g = external global i64, align 8
@.str.5 = private unnamed_addr constant [25 x i8] c"can't find object for ID\00", align 1
@H5E_PLIST_g = external global i64, align 8
@.str.23 = private unnamed_addr constant [20 x i8] c"unable to set value\00", align 1
@__func__.H5Pset_hyper_vector_size = private unnamed_addr constant [25 x i8] c"H5Pset_hyper_vector_size\00", align 1
@.str.37 = private unnamed_addr constant [22 x i8] c"vector size too small\00", align 1
@.str.38 = private unnamed_addr constant [9 x i8] c"vec_size\00", align 1

; Function Attrs: nounwind uwtable
define i32 @H5Pset_hyper_vector_size(i64 noundef %0, i64 noundef %1) #0 {
  %3 = alloca i64, align 8
  %4 = alloca i64, align 8
  %5 = alloca ptr, align 8
  %6 = alloca i32, align 4
  %7 = alloca i8, align 1
  %8 = alloca i8, align 1
  store i64 %0, ptr %3, align 8
  store i64 %1, ptr %4, align 8
  store i32 0, ptr %6, align 4
  store i8 0, ptr %7, align 1
  store i8 0, ptr %8, align 1
  %9 = load i8, ptr @H5_libinit_g, align 1
  %10 = trunc i8 %9 to i1
  br i1 %10, label %15, label %11

11:                                               ; preds = %2
  %12 = load i8, ptr @H5_libterm_g, align 1
  %13 = trunc i8 %12 to i1
  %14 = xor i1 %13, true
  br label %15

15:                                               ; preds = %11, %2
  %16 = phi i1 [ false, %2 ], [ %14, %11 ]
  %17 = xor i1 %16, true
  %18 = xor i1 %17, true
  %19 = zext i1 %18 to i32
  %20 = sext i32 %19 to i64
  %21 = icmp ne i64 %20, 0
  br i1 %21, label %22, label %46

22:                                               ; preds = %15
  %23 = call i32 @H5_init_library()
  %24 = icmp slt i32 %23, 0
  %25 = xor i1 %24, true
  %26 = xor i1 %25, true
  %27 = zext i1 %26 to i32
  %28 = sext i32 %27 to i64
  %29 = icmp ne i64 %28, 0
  br i1 %29, label %30, label %45

30:                                               ; preds = %22
  br label %31

31:                                               ; preds = %30
  br label %32

32:                                               ; preds = %31
  br label %33

33:                                               ; preds = %32
  %34 = load i64, ptr @H5E_FUNC_g, align 8
  %35 = load i64, ptr @H5E_CANTINIT_g, align 8
  %36 = call i32 (ptr, ptr, i32, i64, i64, ptr, ...) @H5E_printf_stack(ptr noundef @.str.1, ptr noundef @__func__.H5Pset_hyper_vector_size, i32 noundef 1623, i64 noundef %34, i64 noundef %35, ptr noundef @.str.2)
  br label %37

37:                                               ; preds = %33
  store i8 1, ptr %8, align 1
  %38 = load i8, ptr %8, align 1
  %39 = trunc i8 %38 to i1
  %40 = zext i1 %39 to i8
  store i8 %40, ptr %8, align 1
  br label %41

41:                                               ; preds = %37
  br label %42

42:                                               ; preds = %41
  store i32 -1, ptr %6, align 4
  br label %129

43:                                               ; No predecessors!
  br label %44

44:                                               ; preds = %43
  br label %45

45:                                               ; preds = %44, %22
  br label %46

46:                                               ; preds = %45, %15
  %47 = call i32 @H5CX_push()
  %48 = icmp slt i32 %47, 0
  %49 = xor i1 %48, true
  %50 = xor i1 %49, true
  %51 = zext i1 %50 to i32
  %52 = sext i32 %51 to i64
  %53 = icmp ne i64 %52, 0
  br i1 %53, label %54, label %69

54:                                               ; preds = %46
  br label %55

55:                                               ; preds = %54
  br label %56

56:                                               ; preds = %55
  br label %57

57:                                               ; preds = %56
  %58 = load i64, ptr @H5E_FUNC_g, align 8
  %59 = load i64, ptr @H5E_CANTSET_g, align 8
  %60 = call i32 (ptr, ptr, i32, i64, i64, ptr, ...) @H5E_printf_stack(ptr noundef @.str.1, ptr noundef @__func__.H5Pset_hyper_vector_size, i32 noundef 1623, i64 noundef %58, i64 noundef %59, ptr noundef @.str.3)
  br label %61

61:                                               ; preds = %57
  store i8 1, ptr %8, align 1
  %62 = load i8, ptr %8, align 1
  %63 = trunc i8 %62 to i1
  %64 = zext i1 %63 to i8
  store i8 %64, ptr %8, align 1
  br label %65

65:                                               ; preds = %61
  br label %66

66:                                               ; preds = %65
  store i32 -1, ptr %6, align 4
  br label %129

67:                                               ; No predecessors!
  br label %68

68:                                               ; preds = %67
  br label %70

69:                                               ; preds = %46
  store i8 1, ptr %7, align 1
  br label %70

70:                                               ; preds = %69, %68
  %71 = call i32 @H5E_clear_stack()
  %72 = load i64, ptr %4, align 8
  %73 = icmp ult i64 %72, 1
  br i1 %73, label %74, label %89

74:                                               ; preds = %70
  br label %75

75:                                               ; preds = %74
  br label %76

76:                                               ; preds = %75
  br label %77

77:                                               ; preds = %76
  %78 = load i64, ptr @H5E_ARGS_g, align 8
  %79 = load i64, ptr @H5E_BADVALUE_g, align 8
  %80 = call i32 (ptr, ptr, i32, i64, i64, ptr, ...) @H5E_printf_stack(ptr noundef @.str.1, ptr noundef @__func__.H5Pset_hyper_vector_size, i32 noundef 1627, i64 noundef %78, i64 noundef %79, ptr noundef @.str.37)
  br label %81

81:                                               ; preds = %77
  store i8 1, ptr %8, align 1
  %82 = load i8, ptr %8, align 1
  %83 = trunc i8 %82 to i1
  %84 = zext i1 %83 to i8
  store i8 %84, ptr %8, align 1
  br label %85

85:                                               ; preds = %81
  br label %86

86:                                               ; preds = %85
  store i32 -1, ptr %6, align 4
  br label %129

87:                                               ; No predecessors!
  br label %88

88:                                               ; preds = %87
  br label %89

89:                                               ; preds = %88, %70
  %90 = load i64, ptr %3, align 8
  %91 = load i64, ptr @H5P_CLS_DATASET_XFER_ID_g, align 8
  %92 = call ptr @H5P_object_verify(i64 noundef %90, i64 noundef %91)
  store ptr %92, ptr %5, align 8
  %93 = icmp eq ptr null, %92
  br i1 %93, label %94, label %109

94:                                               ; preds = %89
  br label %95

95:                                               ; preds = %94
  br label %96

96:                                               ; preds = %95
  br label %97

97:                                               ; preds = %96
  %98 = load i64, ptr @H5E_ID_g, align 8
  %99 = load i64, ptr @H5E_BADID_g, align 8
  %100 = call i32 (ptr, ptr, i32, i64, i64, ptr, ...) @H5E_printf_stack(ptr noundef @.str.1, ptr noundef @__func__.H5Pset_hyper_vector_size, i32 noundef 1631, i64 noundef %98, i64 noundef %99, ptr noundef @.str.5)
  br label %101

101:                                              ; preds = %97
  store i8 1, ptr %8, align 1
  %102 = load i8, ptr %8, align 1
  %103 = trunc i8 %102 to i1
  %104 = zext i1 %103 to i8
  store i8 %104, ptr %8, align 1
  br label %105

105:                                              ; preds = %101
  br label %106

106:                                              ; preds = %105
  store i32 -1, ptr %6, align 4
  br label %129

107:                                              ; No predecessors!
  br label %108

108:                                              ; preds = %107
  br label %109

109:                                              ; preds = %108, %89
  %110 = load ptr, ptr %5, align 8
  %111 = call i32 @H5P_set(ptr noundef %110, ptr noundef @.str.38, ptr noundef %4)
  %112 = icmp slt i32 %111, 0
  br i1 %112, label %113, label %128

113:                                              ; preds = %109
  br label %114

114:                                              ; preds = %113
  br label %115

115:                                              ; preds = %114
  br label %116

116:                                              ; preds = %115
  %117 = load i64, ptr @H5E_PLIST_g, align 8
  %118 = load i64, ptr @H5E_CANTSET_g, align 8
  %119 = call i32 (ptr, ptr, i32, i64, i64, ptr, ...) @H5E_printf_stack(ptr noundef @.str.1, ptr noundef @__func__.H5Pset_hyper_vector_size, i32 noundef 1635, i64 noundef %117, i64 noundef %118, ptr noundef @.str.23)
  br label %120

120:                                              ; preds = %116
  store i8 1, ptr %8, align 1
  %121 = load i8, ptr %8, align 1
  %122 = trunc i8 %121 to i1
  %123 = zext i1 %122 to i8
  store i8 %123, ptr %8, align 1
  br label %124

124:                                              ; preds = %120
  br label %125

125:                                              ; preds = %124
  store i32 -1, ptr %6, align 4
  br label %129

126:                                              ; No predecessors!
  br label %127

127:                                              ; preds = %126
  br label %128

128:                                              ; preds = %127, %109
  br label %129

129:                                              ; preds = %128, %125, %106, %86, %66, %42
  %130 = load i8, ptr %7, align 1
  %131 = trunc i8 %130 to i1
  %132 = xor i1 %131, true
  %133 = xor i1 %132, true
  %134 = zext i1 %133 to i32
  %135 = sext i32 %134 to i64
  %136 = icmp ne i64 %135, 0
  br i1 %136, label %137, label %139

137:                                              ; preds = %129
  %138 = call i32 @H5CX_pop(i1 noundef zeroext true)
  store i8 0, ptr %7, align 1
  br label %139

139:                                              ; preds = %137, %129
  %140 = load i8, ptr %8, align 1
  %141 = trunc i8 %140 to i1
  %142 = xor i1 %141, true
  %143 = xor i1 %142, true
  %144 = zext i1 %143 to i32
  %145 = sext i32 %144 to i64
  %146 = icmp ne i64 %145, 0
  br i1 %146, label %147, label %149

147:                                              ; preds = %139
  %148 = call i32 @H5E_dump_api_stack()
  br label %149

149:                                              ; preds = %147, %139
  %150 = load i32, ptr %6, align 4
  ret i32 %150
}