; Function Attrs: nounwind uwtable
define range(i32 -1, 1) i32 @H5Pset_hyper_vector_size(i64 noundef %0, i64 noundef %1) local_unnamed_addr #0 {
  %3 = alloca i64, align 8
  store i64 %1, ptr %3, align 8
  %4 = load i8, ptr @H5_libinit_g, align 1
  %5 = trunc i8 %4 to i1
  %6 = load i8, ptr @H5_libterm_g, align 1
  %7 = trunc i8 %6 to i1
  %8 = select i1 %5, i1 true, i1 %7
  br i1 %8, label %16, label %9

9:                                                ; preds = %2
  %10 = tail call i32 @H5_init_library() #8
  %11 = icmp slt i32 %10, 0
  br i1 %11, label %12, label %16

12:                                               ; preds = %9
  %13 = load i64, ptr @H5E_FUNC_g, align 8
  %14 = load i64, ptr @H5E_CANTINIT_g, align 8
  %15 = tail call i32 (ptr, ptr, i32, i64, i64, ptr, ...) @H5E_printf_stack(ptr noundef nonnull @.str.1, ptr noundef nonnull @__func__.H5Pset_hyper_vector_size, i32 noundef 1623, i64 noundef %13, i64 noundef %14, ptr noundef nonnull @.str.2) #8
  br label %.thread20

16:                                               ; preds = %9, %2
  %17 = tail call i32 @H5CX_push() #8
  %18 = icmp slt i32 %17, 0
  br i1 %18, label %19, label %23

19:                                               ; preds = %16
  %20 = load i64, ptr @H5E_FUNC_g, align 8
  %21 = load i64, ptr @H5E_CANTSET_g, align 8
  %22 = tail call i32 (ptr, ptr, i32, i64, i64, ptr, ...) @H5E_printf_stack(ptr noundef nonnull @.str.1, ptr noundef nonnull @__func__.H5Pset_hyper_vector_size, i32 noundef 1623, i64 noundef %20, i64 noundef %21, ptr noundef nonnull @.str.3) #8
  br label %.thread20

23:                                               ; preds = %16
  %24 = tail call i32 @H5E_clear_stack() #8
  %25 = icmp eq i64 %1, 0
  br i1 %25, label %26, label %30

26:                                               ; preds = %23
  %27 = load i64, ptr @H5E_ARGS_g, align 8
  %28 = load i64, ptr @H5E_BADVALUE_g, align 8
  %29 = tail call i32 (ptr, ptr, i32, i64, i64, ptr, ...) @H5E_printf_stack(ptr noundef nonnull @.str.1, ptr noundef nonnull @__func__.H5Pset_hyper_vector_size, i32 noundef 1627, i64 noundef %27, i64 noundef %28, ptr noundef nonnull @.str.37) #8
  br label %.thread26

30:                                               ; preds = %23
  %31 = load i64, ptr @H5P_CLS_DATASET_XFER_ID_g, align 8
  %32 = tail call ptr @H5P_object_verify(i64 noundef %0, i64 noundef %31) #8
  %33 = icmp eq ptr %32, null
  br i1 %33, label %34, label %38

34:                                               ; preds = %30
  %35 = load i64, ptr @H5E_ID_g, align 8
  %36 = load i64, ptr @H5E_BADID_g, align 8
  %37 = tail call i32 (ptr, ptr, i32, i64, i64, ptr, ...) @H5E_printf_stack(ptr noundef nonnull @.str.1, ptr noundef nonnull @__func__.H5Pset_hyper_vector_size, i32 noundef 1631, i64 noundef %35, i64 noundef %36, ptr noundef nonnull @.str.5) #8
  br label %.thread26

38:                                               ; preds = %30
  %39 = call i32 @H5P_set(ptr noundef nonnull %32, ptr noundef nonnull @.str.38, ptr noundef nonnull %3) #8
  %40 = icmp slt i32 %39, 0
  br i1 %40, label %41, label %46

41:                                               ; preds = %38
  %42 = load i64, ptr @H5E_PLIST_g, align 8
  %43 = load i64, ptr @H5E_CANTSET_g, align 8
  %44 = call i32 (ptr, ptr, i32, i64, i64, ptr, ...) @H5E_printf_stack(ptr noundef nonnull @.str.1, ptr noundef nonnull @__func__.H5Pset_hyper_vector_size, i32 noundef 1635, i64 noundef %42, i64 noundef %43, ptr noundef nonnull @.str.23) #8
  br label %.thread26

.thread26:                                        ; preds = %41, %34, %26
  %45 = call i32 @H5CX_pop(i1 noundef zeroext true) #8
  br label %.thread20

46:                                               ; preds = %38
  %47 = call i32 @H5CX_pop(i1 noundef zeroext true) #8
  br label %49

.thread20:                                        ; preds = %19, %12, %.thread26
  %48 = call i32 @H5E_dump_api_stack() #8
  br label %49

49:                                               ; preds = %46, %.thread20
  %.0101523 = phi i32 [ -1, %.thread20 ], [ 0, %46 ]
  ret i32 %.0101523
}